; Function Attrs: nounwind uwtable
define ptr @l___private_Lean_Elab_Extra_0__Lean_Elab_Term_Op_mkBinOp(i8 noundef zeroext %0, ptr noundef %1, ptr noundef %2, ptr noundef %3, ptr noundef %4, ptr noundef %5, ptr noundef %6, ptr noundef %7, ptr noundef %8, ptr noundef %9, ptr noundef %10) local_unnamed_addr #0 {
  %12 = icmp eq i8 %0, 0
  br i1 %12, label %13, label %15

13:                                               ; preds = %11
  %14 = tail call ptr @l___private_Lean_Elab_Extra_0__Lean_Elab_Term_Op_mkBinOp___lambda__1(ptr noundef %2, ptr noundef %1, ptr noundef %3, ptr nonnull poison, ptr noundef %4, ptr noundef %5, ptr noundef %6, ptr noundef %7, ptr noundef %8, ptr noundef %9, ptr noundef %10)
  br label %47

15:                                               ; preds = %11
  %16 = tail call ptr @l_Lean_Meta_mkFunUnit(ptr noundef %3, ptr noundef %6, ptr noundef %7, ptr noundef %8, ptr noundef %9, ptr noundef %10) #7
  %17 = getelementptr inbounds nuw i8, ptr %16, i64 8
  %18 = load ptr, ptr %17, align 8, !tbaa !4
  %19 = ptrtoint ptr %18 to i64
  %20 = and i64 %19, 1
  %.not = icmp eq i64 %20, 0
  br i1 %.not, label %21, label %lean_inc.exit36

21:                                               ; preds = %15
  %.val.i = load i32, ptr %18, align 4, !tbaa !8
  %22 = icmp sgt i32 %.val.i, 0
  br i1 %22, label %23, label %25, !prof !11

23:                                               ; preds = %21
  %24 = add nuw i32 %.val.i, 1
  store i32 %24, ptr %18, align 4, !tbaa !8
  br label %lean_inc.exit36

25:                                               ; preds = %21
  %.not.i37 = icmp eq i32 %.val.i, 0
  br i1 %.not.i37, label %lean_inc.exit36, label %26

26:                                               ; preds = %25
  tail call void @lean_inc_ref_cold(ptr noundef nonnull %18) #7
  br label %lean_inc.exit36

lean_inc.exit36:                                  ; preds = %26, %25, %23, %15
  %27 = getelementptr inbounds nuw i8, ptr %16, i64 16
  %28 = load ptr, ptr %27, align 8, !tbaa !4
  %29 = ptrtoint ptr %28 to i64
  %30 = and i64 %29, 1
  %.not41 = icmp eq i64 %30, 0
  br i1 %.not41, label %31, label %lean_inc.exit

31:                                               ; preds = %lean_inc.exit36
  %.val.i38 = load i32, ptr %28, align 4, !tbaa !8
  %32 = icmp sgt i32 %.val.i38, 0
  br i1 %32, label %33, label %35, !prof !11

33:                                               ; preds = %31
  %34 = add nuw i32 %.val.i38, 1
  store i32 %34, ptr %28, align 4, !tbaa !8
  br label %lean_inc.exit

35:                                               ; preds = %31
  %.not.i39 = icmp eq i32 %.val.i38, 0
  br i1 %.not.i39, label %lean_inc.exit, label %36

36:                                               ; preds = %35
  tail call void @lean_inc_ref_cold(ptr noundef nonnull %28) #7
  br label %lean_inc.exit

lean_inc.exit:                                    ; preds = %36, %35, %33, %lean_inc.exit36
  %37 = ptrtoint ptr %16 to i64
  %38 = and i64 %37, 1
  %.not42 = icmp eq i64 %38, 0
  br i1 %.not42, label %39, label %lean_dec.exit

39:                                               ; preds = %lean_inc.exit
  %40 = load i32, ptr %16, align 4, !tbaa !8
  %41 = icmp sgt i32 %40, 1
  br i1 %41, label %42, label %44, !prof !11

42:                                               ; preds = %39
  %43 = add nsw i32 %40, -1
  store i32 %43, ptr %16, align 4, !tbaa !8
  br label %lean_dec.exit

44:                                               ; preds = %39
  %.not.i = icmp eq i32 %40, 0
  br i1 %.not.i, label %lean_dec.exit, label %45

45:                                               ; preds = %44
  tail call void @lean_dec_ref_cold(ptr noundef nonnull %16) #7
  br label %lean_dec.exit

lean_dec.exit:                                    ; preds = %45, %44, %42, %lean_inc.exit
  %46 = tail call ptr @l___private_Lean_Elab_Extra_0__Lean_Elab_Term_Op_mkBinOp___lambda__1(ptr noundef %2, ptr noundef %1, ptr noundef %18, ptr nonnull poison, ptr noundef %4, ptr noundef %5, ptr noundef %6, ptr noundef %7, ptr noundef %8, ptr noundef %9, ptr noundef %28)
  br label %47

47:                                               ; preds = %lean_dec.exit, %13
  %.0 = phi ptr [ %14, %13 ], [ %46, %lean_dec.exit ]
  ret ptr %.0
}